target datalayout = "e-m:e-p270:32:32-p271:32:32-p272:64:64-i64:64-i128:128-f80:128-n8:16:32:64-S128"
target triple = "x86_64-pc-linux-gnu"

%"class.icu_77::Locale" = type <{ %"class.icu_77::UObject", [12 x i8], [6 x i8], [4 x i8], [2 x i8], i32, [4 x i8], ptr, [157 x i8], [3 x i8], ptr, i8, [7 x i8] }>
%"class.icu_77::UObject" = type { ptr }
%"class.icu_77::UnicodeString" = type { %"class.icu_77::Replaceable", %"union.icu_77::UnicodeString::StackBufferOrFields" }
%"class.icu_77::Replaceable" = type { %"class.icu_77::UObject" }
%"union.icu_77::UnicodeString::StackBufferOrFields" = type { %struct.anon.0, [32 x i8] }
%struct.anon.0 = type { i16, i32, i32, ptr }
%"class.icu_77::CFactory" = type { %"class.icu_77::LocaleKeyFactory.base", ptr, ptr }
%"class.icu_77::LocaleKeyFactory.base" = type <{ %"class.icu_77::ICUServiceFactory", %"class.icu_77::UnicodeString", i32 }>
%"class.icu_77::ICUServiceFactory" = type { %"class.icu_77::UObject" }
%"class.icu_77::Hashtable" = type { ptr, %struct.UHashtable }
%struct.UHashtable = type { ptr, ptr, ptr, ptr, ptr, ptr, i32, i32, i32, i32, float, float, i8, i8 }
%"class.icu_77::LocaleKeyFactory" = type <{ %"class.icu_77::ICUServiceFactory", %"class.icu_77::UnicodeString", i32, [4 x i8] }>

; Function Attrs: inlinehint mustprogress uwtable
define linkonce_odr noundef ptr @_ZNK6icu_779Hashtable3getERKNS_13UnicodeStringE(ptr noundef nonnull align 8 dereferenceable(88) %0, ptr noundef nonnull align 8 dereferenceable(64) %1) #7 comdat align 2 {
  %3 = alloca ptr, align 8
  %4 = alloca ptr, align 8
  store ptr %0, ptr %3, align 8, !tbaa !86
  store ptr %1, ptr %4, align 8, !tbaa !10
  %5 = load ptr, ptr %3, align 8
  %6 = getelementptr inbounds nuw %"class.icu_77::Hashtable", ptr %5, i32 0, i32 0
  %7 = load ptr, ptr %6, align 8, !tbaa !87
  %8 = load ptr, ptr %4, align 8, !tbaa !10
  %9 = call ptr @uhash_get_77(ptr noundef %7, ptr noundef %8)
  ret ptr %9
}

; Function Attrs: mustprogress uwtable
define noundef nonnull align 8 dereferenceable(64) ptr @_ZNK6icu_778CFactory14getDisplayNameERKNS_13UnicodeStringERKNS_6LocaleERS1_(ptr noundef nonnull align 8 dereferenceable(96) %0, ptr noundef nonnull align 8 dereferenceable(64) %1, ptr noundef nonnull align 8 dereferenceable(217) %2, ptr noundef nonnull align 8 dereferenceable(64) %3) unnamed_addr #3 align 2 personality ptr @__gxx_personality_v0 {
  %5 = alloca ptr, align 8
  %6 = alloca ptr, align 8
  %7 = alloca ptr, align 8
  %8 = alloca ptr, align 8
  %9 = alloca ptr, align 8
  %10 = alloca i32, align 4
  %11 = alloca ptr, align 8
  %12 = alloca %"class.icu_77::Locale", align 8
  %13 = alloca ptr, align 8
  %14 = alloca i32, align 4
  %15 = alloca i32, align 4
  store ptr %0, ptr %6, align 8, !tbaa !76
  store ptr %1, ptr %7, align 8, !tbaa !10
  store ptr %2, ptr %8, align 8, !tbaa !8
  store ptr %3, ptr %9, align 8, !tbaa !10
  %16 = load ptr, ptr %6, align 8
  %17 = getelementptr inbounds nuw %"class.icu_77::LocaleKeyFactory", ptr %16, i32 0, i32 2
  %18 = load i32, ptr %17, align 8, !tbaa !93
  %19 = and i32 %18, 1
  %20 = icmp eq i32 %19, 0
  br i1 %20, label %21, label %54

21:                                               ; preds = %4
  call void @llvm.lifetime.start.p0(i64 4, ptr %10) #14
  store i32 0, ptr %10, align 4, !tbaa !25
  call void @llvm.lifetime.start.p0(i64 8, ptr %11) #14
  %22 = load ptr, ptr %16, align 8, !tbaa !19
  %23 = getelementptr inbounds ptr, ptr %22, i64 8
  %24 = load ptr, ptr %23, align 8
  %25 = call noundef ptr %24(ptr noundef nonnull align 8 dereferenceable(96) %16, ptr noundef nonnull align 4 dereferenceable(4) %10)
  store ptr %25, ptr %11, align 8, !tbaa !86
  %26 = load ptr, ptr %11, align 8, !tbaa !86
  %27 = icmp ne ptr %26, null
  br i1 %27, label %28, label %50

28:                                               ; preds = %21
  %29 = load ptr, ptr %11, align 8, !tbaa !86
  %30 = load ptr, ptr %7, align 8, !tbaa !10
  %31 = call noundef ptr @_ZNK6icu_779Hashtable3getERKNS_13UnicodeStringE(ptr noundef nonnull align 8 dereferenceable(88) %29, ptr noundef nonnull align 8 dereferenceable(64) %30)
  %32 = icmp ne ptr %31, null
  br i1 %32, label %33, label %50

33:                                               ; preds = %28
  call void @llvm.lifetime.start.p0(i64 224, ptr %12) #14
  call void @_ZN6icu_776LocaleC1Ev(ptr noundef nonnull align 8 dereferenceable(217) %12)
  %34 = load ptr, ptr %7, align 8, !tbaa !10
  %35 = invoke noundef nonnull align 8 dereferenceable(217) ptr @_ZN6icu_7713LocaleUtility18initLocaleFromNameERKNS_13UnicodeStringERNS_6LocaleE(ptr noundef nonnull align 8 dereferenceable(64) %34, ptr noundef nonnull align 8 dereferenceable(217) %12)
          to label %36 unwind label %46

36:                                               ; preds = %33
  %37 = getelementptr inbounds nuw %"class.icu_77::CFactory", ptr %16, i32 0, i32 1
  %38 = load ptr, ptr %37, align 8, !tbaa !78
  %39 = load ptr, ptr %8, align 8, !tbaa !8
  %40 = load ptr, ptr %9, align 8, !tbaa !10
  %41 = load ptr, ptr %38, align 8, !tbaa !19
  %42 = getelementptr inbounds ptr, ptr %41, i64 5
  %43 = load ptr, ptr %42, align 8
  %44 = invoke noundef nonnull align 8 dereferenceable(64) ptr %43(ptr noundef nonnull align 8 dereferenceable(8) %38, ptr noundef nonnull align 8 dereferenceable(217) %12, ptr noundef nonnull align 8 dereferenceable(217) %39, ptr noundef nonnull align 8 dereferenceable(64) %40)
          to label %45 unwind label %46

45:                                               ; preds = %36
  store ptr %44, ptr %5, align 8
  store i32 1, ptr %15, align 4
  call void @_ZN6icu_776LocaleD1Ev(ptr noundef nonnull align 8 dereferenceable(217) %12) #14
  call void @llvm.lifetime.end.p0(i64 224, ptr %12) #14
  br label %51

46:                                               ; preds = %36, %33
  %47 = landingpad { ptr, i32 }
          cleanup
  %48 = extractvalue { ptr, i32 } %47, 0
  store ptr %48, ptr %13, align 8
  %49 = extractvalue { ptr, i32 } %47, 1
  store i32 %49, ptr %14, align 4
  call void @_ZN6icu_776LocaleD1Ev(ptr noundef nonnull align 8 dereferenceable(217) %12) #14
  call void @llvm.lifetime.end.p0(i64 224, ptr %12) #14
  call void @llvm.lifetime.end.p0(i64 8, ptr %11) #14
  call void @llvm.lifetime.end.p0(i64 4, ptr %10) #14
  br label %59

50:                                               ; preds = %28, %21
  store i32 0, ptr %15, align 4
  br label %51

51:                                               ; preds = %50, %45
  call void @llvm.lifetime.end.p0(i64 8, ptr %11) #14
  call void @llvm.lifetime.end.p0(i64 4, ptr %10) #14
  %52 = load i32, ptr %15, align 4
  switch i32 %52, label %64 [
    i32 0, label %53
    i32 1, label %57
  ]

53:                                               ; preds = %51
  br label %54

54:                                               ; preds = %53, %4
  %55 = load ptr, ptr %9, align 8, !tbaa !10
  call void @_ZN6icu_7713UnicodeString10setToBogusEv(ptr noundef nonnull align 8 dereferenceable(64) %55)
  %56 = load ptr, ptr %9, align 8, !tbaa !10
  store ptr %56, ptr %5, align 8
  br label %57

57:                                               ; preds = %54, %51
  %58 = load ptr, ptr %5, align 8
  ret ptr %58

59:                                               ; preds = %46
  %60 = load ptr, ptr %13, align 8
  %61 = load i32, ptr %14, align 4
  %62 = insertvalue { ptr, i32 } poison, ptr %60, 0
  %63 = insertvalue { ptr, i32 } %62, i32 %61, 1
  resume { ptr, i32 } %63

64:                                               ; preds = %51
  unreachable
}