; Function Attrs: mustprogress uwtable
define noundef nonnull align 8 dereferenceable(64) ptr @_ZNK6icu_778CFactory14getDisplayNameERKNS_13UnicodeStringERKNS_6LocaleERS1_(ptr noundef nonnull align 8 dereferenceable(96) %0, ptr noundef nonnull align 8 dereferenceable(64) %1, ptr noundef nonnull align 8 dereferenceable(217) %2, ptr noundef nonnull align 8 dereferenceable(64) %3) unnamed_addr #5 align 2 personality ptr @__gxx_personality_v0 {
  %5 = alloca i32, align 4
  %6 = alloca %"class.icu_77::Locale", align 8
  %7 = getelementptr inbounds nuw i8, ptr %0, i64 72
  %8 = load i32, ptr %7, align 8, !tbaa !61
  %9 = and i32 %8, 1
  %10 = icmp eq i32 %9, 0
  br i1 %10, label %11, label %31

11:                                               ; preds = %4
  call void @llvm.lifetime.start.p0(i64 4, ptr nonnull %5) #16
  store i32 0, ptr %5, align 4, !tbaa !6
  %12 = load ptr, ptr %0, align 8, !tbaa !3
  %13 = getelementptr inbounds nuw i8, ptr %12, i64 64
  %14 = load ptr, ptr %13, align 8
  %15 = call noundef ptr %14(ptr noundef nonnull align 8 dereferenceable(96) %0, ptr noundef nonnull align 4 dereferenceable(4) %5)
  %.not = icmp eq ptr %15, null
  br i1 %.not, label %.thread, label %16

16:                                               ; preds = %11
  %17 = load ptr, ptr %15, align 8, !tbaa !55
  %18 = call noundef ptr @uhash_get_77(ptr noundef %17, ptr noundef nonnull align 8 dereferenceable(64) %1)
  %.not14 = icmp eq ptr %18, null
  br i1 %.not14, label %.thread, label %19

19:                                               ; preds = %16
  call void @llvm.lifetime.start.p0(i64 224, ptr nonnull %6) #16
  call void @_ZN6icu_776LocaleC1Ev(ptr noundef nonnull align 8 dereferenceable(217) %6)
  %20 = invoke noundef nonnull align 8 dereferenceable(217) ptr @_ZN6icu_7713LocaleUtility18initLocaleFromNameERKNS_13UnicodeStringERNS_6LocaleE(ptr noundef nonnull align 8 dereferenceable(64) %1, ptr noundef nonnull align 8 dereferenceable(217) %6)
          to label %21 unwind label %28

21:                                               ; preds = %19
  %22 = getelementptr inbounds nuw i8, ptr %0, i64 80
  %23 = load ptr, ptr %22, align 8, !tbaa !46
  %24 = load ptr, ptr %23, align 8, !tbaa !3
  %25 = getelementptr inbounds nuw i8, ptr %24, i64 40
  %26 = load ptr, ptr %25, align 8
  %27 = invoke noundef nonnull align 8 dereferenceable(64) ptr %26(ptr noundef nonnull align 8 dereferenceable(8) %23, ptr noundef nonnull align 8 dereferenceable(217) %6, ptr noundef nonnull align 8 dereferenceable(217) %2, ptr noundef nonnull align 8 dereferenceable(64) %3)
          to label %30 unwind label %28

28:                                               ; preds = %21, %19
  %29 = landingpad { ptr, i32 }
          cleanup
  call void @_ZN6icu_776LocaleD1Ev(ptr noundef nonnull align 8 dereferenceable(217) %6) #16
  call void @llvm.lifetime.end.p0(i64 224, ptr nonnull %6) #16
  call void @llvm.lifetime.end.p0(i64 4, ptr nonnull %5) #16
  resume { ptr, i32 } %29

.thread:                                          ; preds = %16, %11
  call void @llvm.lifetime.end.p0(i64 4, ptr nonnull %5) #16
  br label %31

30:                                               ; preds = %21
  call void @_ZN6icu_776LocaleD1Ev(ptr noundef nonnull align 8 dereferenceable(217) %6) #16
  call void @llvm.lifetime.end.p0(i64 224, ptr nonnull %6) #16
  call void @llvm.lifetime.end.p0(i64 4, ptr nonnull %5) #16
  br label %32

31:                                               ; preds = %.thread, %4
  call void @_ZN6icu_7713UnicodeString10setToBogusEv(ptr noundef nonnull align 8 dereferenceable(64) %3)
  br label %32

32:                                               ; preds = %30, %31
  %.1 = phi ptr [ %27, %30 ], [ %3, %31 ]
  ret ptr %.1
}